target datalayout = "e-m:e-p270:32:32-p271:32:32-p272:64:64-i64:64-i128:128-f80:128-n8:16:32:64-S128"
target triple = "x86_64-pc-linux-gnu"

@the_repository = external global ptr, align 8
@.str.7 = private unnamed_addr constant [50 x i8] c"option '%s' must come before non-option arguments\00", align 1
@sane_ctype = external constant [256 x i8], align 16
@.str.92 = private unnamed_addr constant [3 x i8] c":(\00", align 1

; Function Attrs: nounwind uwtable
define internal i32 @looks_like_pathspec(ptr noundef %0) #0 {
  %2 = alloca i32, align 4
  %3 = alloca ptr, align 8
  %4 = alloca ptr, align 8
  %5 = alloca i32, align 4
  %6 = alloca i32, align 4
  store ptr %0, ptr %3, align 8, !tbaa !4
  call void @llvm.lifetime.start.p0(i64 8, ptr %4) #13
  call void @llvm.lifetime.start.p0(i64 4, ptr %5) #13
  store i32 0, ptr %5, align 4, !tbaa !9
  %7 = load ptr, ptr %3, align 8, !tbaa !4
  store ptr %7, ptr %4, align 8, !tbaa !4
  br label %8

8:                                                ; preds = %35, %1
  %9 = load ptr, ptr %4, align 8, !tbaa !4
  %10 = load i8, ptr %9, align 1, !tbaa !13
  %11 = icmp ne i8 %10, 0
  br i1 %11, label %12, label %38

12:                                               ; preds = %8
  %13 = load i32, ptr %5, align 4, !tbaa !9
  %14 = icmp ne i32 %13, 0
  br i1 %14, label %15, label %16

15:                                               ; preds = %12
  store i32 0, ptr %5, align 4, !tbaa !9
  br label %34

16:                                               ; preds = %12
  %17 = load ptr, ptr %4, align 8, !tbaa !4
  %18 = load i8, ptr %17, align 1, !tbaa !13
  %19 = zext i8 %18 to i64
  %20 = getelementptr inbounds nuw [256 x i8], ptr @sane_ctype, i64 0, i64 %19
  %21 = load i8, ptr %20, align 1, !tbaa !13
  %22 = zext i8 %21 to i32
  %23 = and i32 %22, 8
  %24 = icmp ne i32 %23, 0
  br i1 %24, label %25, label %33

25:                                               ; preds = %16
  %26 = load ptr, ptr %4, align 8, !tbaa !4
  %27 = load i8, ptr %26, align 1, !tbaa !13
  %28 = sext i8 %27 to i32
  %29 = icmp eq i32 %28, 92
  br i1 %29, label %30, label %31

30:                                               ; preds = %25
  store i32 1, ptr %5, align 4, !tbaa !9
  br label %32

31:                                               ; preds = %25
  store i32 1, ptr %2, align 4
  store i32 1, ptr %6, align 4
  br label %44

32:                                               ; preds = %30
  br label %33

33:                                               ; preds = %32, %16
  br label %34

34:                                               ; preds = %33, %15
  br label %35

35:                                               ; preds = %34
  %36 = load ptr, ptr %4, align 8, !tbaa !4
  %37 = getelementptr inbounds nuw i8, ptr %36, i32 1
  store ptr %37, ptr %4, align 8, !tbaa !4
  br label %8, !llvm.loop !25

38:                                               ; preds = %8
  %39 = load ptr, ptr %3, align 8, !tbaa !4
  %40 = call i32 @starts_with(ptr noundef %39, ptr noundef @.str.92)
  %41 = icmp ne i32 %40, 0
  br i1 %41, label %42, label %43

42:                                               ; preds = %38
  store i32 1, ptr %2, align 4
  store i32 1, ptr %6, align 4
  br label %44

43:                                               ; preds = %38
  store i32 0, ptr %2, align 4
  store i32 1, ptr %6, align 4
  br label %44

44:                                               ; preds = %43, %42, %31
  call void @llvm.lifetime.end.p0(i64 4, ptr %5) #13
  call void @llvm.lifetime.end.p0(i64 8, ptr %4) #13
  %45 = load i32, ptr %2, align 4
  ret i32 %45
}

; Function Attrs: nounwind uwtable
define dso_local void @verify_filename(ptr noundef %0, ptr noundef %1, i32 noundef %2) #0 {
  %4 = alloca ptr, align 8
  %5 = alloca ptr, align 8
  %6 = alloca i32, align 4
  store ptr %0, ptr %4, align 8, !tbaa !4
  store ptr %1, ptr %5, align 8, !tbaa !4
  store i32 %2, ptr %6, align 4, !tbaa !9
  %7 = load ptr, ptr %5, align 8, !tbaa !4
  %8 = load i8, ptr %7, align 1, !tbaa !13
  %9 = sext i8 %8 to i32
  %10 = icmp eq i32 %9, 45
  br i1 %10, label %11, label %14

11:                                               ; preds = %3
  %12 = call ptr @_(ptr noundef @.str.7)
  %13 = load ptr, ptr %5, align 8, !tbaa !4
  call void (ptr, ...) @die(ptr noundef %12, ptr noundef %13) #15
  unreachable

14:                                               ; preds = %3
  %15 = load ptr, ptr %5, align 8, !tbaa !4
  %16 = call i32 @looks_like_pathspec(ptr noundef %15)
  %17 = icmp ne i32 %16, 0
  br i1 %17, label %23, label %18

18:                                               ; preds = %14
  %19 = load ptr, ptr %4, align 8, !tbaa !4
  %20 = load ptr, ptr %5, align 8, !tbaa !4
  %21 = call i32 @check_filename(ptr noundef %19, ptr noundef %20)
  %22 = icmp ne i32 %21, 0
  br i1 %22, label %23, label %24

23:                                               ; preds = %18, %14
  ret void

24:                                               ; preds = %18
  %25 = load ptr, ptr @the_repository, align 8, !tbaa !14
  %26 = load ptr, ptr %4, align 8, !tbaa !4
  %27 = load ptr, ptr %5, align 8, !tbaa !4
  %28 = load i32, ptr %6, align 4, !tbaa !9
  call void @die_verify_filename(ptr noundef %25, ptr noundef %26, ptr noundef %27, i32 noundef %28) #15
  unreachable
}