; Function Attrs: nounwind uwtable
define dso_local void @verify_filename(ptr noundef %0, ptr noundef %1, i32 noundef %2) local_unnamed_addr #0 {
  %4 = load i8, ptr %1, align 1, !tbaa !4
  switch i8 %4, label %.lr.ph.i [
    i8 45, label %5
    i8 0, label %looks_like_pathspec.exit
  ]

5:                                                ; preds = %3
  %6 = tail call fastcc ptr @_(ptr noundef nonnull @.str.7)
  tail call void (ptr, ...) @die(ptr noundef %6, ptr noundef nonnull %1) #26
  unreachable

.lr.ph.i:                                         ; preds = %3, %15
  %7 = phi i8 [ %17, %15 ], [ %4, %3 ]
  %.015.i = phi i32 [ %.1.i, %15 ], [ 0, %3 ]
  %.0714.i = phi ptr [ %16, %15 ], [ %1, %3 ]
  %.not11.i = icmp eq i32 %.015.i, 0
  br i1 %.not11.i, label %8, label %15

8:                                                ; preds = %.lr.ph.i
  %9 = zext i8 %7 to i64
  %10 = getelementptr inbounds nuw [256 x i8], ptr @sane_ctype, i64 0, i64 %9
  %11 = load i8, ptr %10, align 1, !tbaa !4
  %12 = and i8 %11, 8
  %.not12.i = icmp eq i8 %12, 0
  br i1 %.not12.i, label %15, label %13

13:                                               ; preds = %8
  %14 = icmp eq i8 %7, 92
  br i1 %14, label %15, label %looks_like_pathspec.exit.thread

15:                                               ; preds = %13, %8, %.lr.ph.i
  %.1.i = phi i32 [ 0, %8 ], [ 0, %.lr.ph.i ], [ 1, %13 ]
  %16 = getelementptr inbounds nuw i8, ptr %.0714.i, i64 1
  %17 = load i8, ptr %16, align 1, !tbaa !4
  %.not.i = icmp eq i8 %17, 0
  br i1 %.not.i, label %looks_like_pathspec.exit, label %.lr.ph.i, !llvm.loop !19

looks_like_pathspec.exit:                         ; preds = %15, %3
  %18 = tail call i32 @starts_with(ptr noundef nonnull %1, ptr noundef nonnull @.str.92) #25
  %.not10.i.not = icmp eq i32 %18, 0
  br i1 %.not10.i.not, label %19, label %looks_like_pathspec.exit.thread

19:                                               ; preds = %looks_like_pathspec.exit
  %20 = tail call i32 @check_filename(ptr noundef %0, ptr noundef nonnull %1)
  %.not7 = icmp eq i32 %20, 0
  br i1 %.not7, label %21, label %looks_like_pathspec.exit.thread

looks_like_pathspec.exit.thread:                  ; preds = %13, %19, %looks_like_pathspec.exit
  ret void

21:                                               ; preds = %19
  %22 = load ptr, ptr @the_repository, align 8, !tbaa !9
  tail call fastcc void @die_verify_filename(ptr noundef %22, ptr noundef %0, ptr noundef nonnull %1, i32 noundef %2) #28
  unreachable
}